; Function Attrs: mustprogress nofree nounwind willreturn memory(argmem: read) uwtable
define noundef zeroext i1 @_ZN3nix12isDirOrInDirESt17basic_string_viewIcSt11char_traitsIcEES3_(i64 %0, ptr nocapture readonly %1, i64 %2, ptr nocapture readonly %3) local_unnamed_addr #7 personality ptr @__gxx_personality_v0 {
  %5 = icmp eq i64 %0, %2
  %6 = icmp eq i64 %0, 0
  br i1 %5, label %7, label %9

7:                                                ; preds = %4
  br i1 %6, label %_ZSteqIcSt11char_traitsIcEEbSt17basic_string_viewIT_T0_ES5_.exit, label %_ZNSt11char_traitsIcE7compareEPKcS2_m.exit.i.i

_ZNSt11char_traitsIcE7compareEPKcS2_m.exit.i.i:   ; preds = %7
  %bcmp.i = tail call i32 @bcmp(ptr %1, ptr %3, i64 %0)
  %8 = icmp eq i32 %bcmp.i, 0
  br i1 %8, label %_ZSteqIcSt11char_traitsIcEEbSt17basic_string_viewIT_T0_ES5_.exit, label %_ZNSt11char_traitsIcE7compareEPKcS2_m.exit.i.i.i

9:                                                ; preds = %4
  br i1 %6, label %_ZSteqIcSt11char_traitsIcEEbSt17basic_string_viewIT_T0_ES5_.exit, label %_ZNSt11char_traitsIcE7compareEPKcS2_m.exit.i.i.i

_ZNSt11char_traitsIcE7compareEPKcS2_m.exit.i.i.i: ; preds = %_ZNSt11char_traitsIcE7compareEPKcS2_m.exit.i.i, %9
  %lhsc.i = load i8, ptr %1, align 1
  %10 = icmp eq i8 %lhsc.i, 47
  br i1 %10, label %_ZSteqIcSt11char_traitsIcEEbSt17basic_string_viewIT_T0_ENSt15__type_identityIS5_E4typeE.exit.i, label %_ZSteqIcSt11char_traitsIcEEbSt17basic_string_viewIT_T0_ES5_.exit

_ZSteqIcSt11char_traitsIcEEbSt17basic_string_viewIT_T0_ENSt15__type_identityIS5_E4typeE.exit.i: ; preds = %_ZNSt11char_traitsIcE7compareEPKcS2_m.exit.i.i.i
  %.sroa.speculated.i5.i = tail call i64 @llvm.umin.i64(i64 %0, i64 %2)
  %.not20.i = icmp ugt i64 %2, %0
  br i1 %.not20.i, label %_ZSteqIcSt11char_traitsIcEEbSt17basic_string_viewIT_T0_ES5_.exit, label %11

11:                                               ; preds = %_ZSteqIcSt11char_traitsIcEEbSt17basic_string_viewIT_T0_ENSt15__type_identityIS5_E4typeE.exit.i
  %12 = icmp eq i64 %2, 0
  br i1 %12, label %_ZSteqIcSt11char_traitsIcEEbSt17basic_string_viewIT_T0_ES5_.exit.i, label %_ZNSt11char_traitsIcE7compareEPKcS2_m.exit.i.i8.i

_ZNSt11char_traitsIcE7compareEPKcS2_m.exit.i.i8.i: ; preds = %11
  %bcmp.i9.i = tail call i32 @bcmp(ptr nonnull %1, ptr %3, i64 %.sroa.speculated.i5.i)
  %13 = icmp ne i32 %bcmp.i9.i, 0
  %14 = add i64 %2, 2
  %.not.i = icmp ugt i64 %14, %0
  %or.cond.i = or i1 %.not.i, %13
  br i1 %or.cond.i, label %_ZSteqIcSt11char_traitsIcEEbSt17basic_string_viewIT_T0_ES5_.exit, label %15

_ZSteqIcSt11char_traitsIcEEbSt17basic_string_viewIT_T0_ES5_.exit.i: ; preds = %11
  %.not.old.i = icmp eq i64 %0, 1
  br i1 %.not.old.i, label %_ZSteqIcSt11char_traitsIcEEbSt17basic_string_viewIT_T0_ES5_.exit, label %15

15:                                               ; preds = %_ZSteqIcSt11char_traitsIcEEbSt17basic_string_viewIT_T0_ES5_.exit.i, %_ZNSt11char_traitsIcE7compareEPKcS2_m.exit.i.i8.i
  %16 = getelementptr inbounds i8, ptr %1, i64 %2
  %17 = load i8, ptr %16, align 1
  %18 = icmp eq i8 %17, 47
  br label %_ZSteqIcSt11char_traitsIcEEbSt17basic_string_viewIT_T0_ES5_.exit

_ZSteqIcSt11char_traitsIcEEbSt17basic_string_viewIT_T0_ES5_.exit: ; preds = %15, %_ZSteqIcSt11char_traitsIcEEbSt17basic_string_viewIT_T0_ES5_.exit.i, %_ZNSt11char_traitsIcE7compareEPKcS2_m.exit.i.i8.i, %_ZSteqIcSt11char_traitsIcEEbSt17basic_string_viewIT_T0_ENSt15__type_identityIS5_E4typeE.exit.i, %_ZNSt11char_traitsIcE7compareEPKcS2_m.exit.i.i.i, %9, %_ZNSt11char_traitsIcE7compareEPKcS2_m.exit.i.i, %7
  %19 = phi i1 [ true, %7 ], [ true, %_ZNSt11char_traitsIcE7compareEPKcS2_m.exit.i.i ], [ false, %_ZSteqIcSt11char_traitsIcEEbSt17basic_string_viewIT_T0_ES5_.exit.i ], [ %18, %15 ], [ false, %9 ], [ false, %_ZNSt11char_traitsIcE7compareEPKcS2_m.exit.i.i.i ], [ false, %_ZSteqIcSt11char_traitsIcEEbSt17basic_string_viewIT_T0_ENSt15__type_identityIS5_E4typeE.exit.i ], [ false, %_ZNSt11char_traitsIcE7compareEPKcS2_m.exit.i.i8.i ]
  ret i1 %19
}